target datalayout = "e-m:e-p270:32:32-p271:32:32-p272:64:64-i64:64-i128:128-f80:128-n8:16:32:64-S128"
target triple = "x86_64-pc-linux-gnu"

@bio_err = external global ptr, align 8
@.str.26 = private unnamed_addr constant [27 x i8] c"../openssl/apps/lib/s_cb.c\00", align 1
@.str.53 = private unnamed_addr constant [1 x i8] zeroinitializer, align 1
@.str.92 = private unnamed_addr constant [18 x i8] c"Verification: OK\0A\00", align 1
@.str.93 = private unnamed_addr constant [23 x i8] c"Verified peername: %s\0A\00", align 1
@.str.94 = private unnamed_addr constant [24 x i8] c"Verification error: %s\0A\00", align 1
@.str.95 = private unnamed_addr constant [25 x i8] c"DANE TLSA %d %d %d %s%s \00", align 1
@.str.96 = private unnamed_addr constant [4 x i8] c"...\00", align 1
@.str.97 = private unnamed_addr constant [28 x i8] c"%s certificate at depth %d\0A\00", align 1
@.str.98 = private unnamed_addr constant [16 x i8] c"signed the peer\00", align 1
@.str.99 = private unnamed_addr constant [15 x i8] c"matched the TA\00", align 1
@.str.100 = private unnamed_addr constant [15 x i8] c"matched the EE\00", align 1
@.str.101 = private unnamed_addr constant [33 x i8] c"matched the peer raw public key\0A\00", align 1
@hexencode.hex = internal global ptr @.str.271, align 8
@.str.272 = private unnamed_addr constant [44 x i8] c"%s: %zu-byte buffer too large to hexencode\0A\00", align 1
@.str.273 = private unnamed_addr constant [21 x i8] c"TLSA hex data buffer\00", align 1

; Function Attrs: nounwind uwtable
define internal ptr @hexencode(ptr noundef %0, i64 noundef %1) #0 {
  %3 = alloca ptr, align 8
  %4 = alloca i64, align 8
  %5 = alloca ptr, align 8
  %6 = alloca ptr, align 8
  %7 = alloca i64, align 8
  %8 = alloca i32, align 4
  store ptr %0, ptr %3, align 8, !tbaa !21
  store i64 %1, ptr %4, align 8, !tbaa !38
  call void @llvm.lifetime.start.p0(i64 8, ptr %5) #10
  call void @llvm.lifetime.start.p0(i64 8, ptr %6) #10
  call void @llvm.lifetime.start.p0(i64 8, ptr %7) #10
  %9 = load i64, ptr %4, align 8, !tbaa !38
  %10 = mul i64 2, %9
  %11 = add i64 %10, 1
  store i64 %11, ptr %7, align 8, !tbaa !38
  call void @llvm.lifetime.start.p0(i64 4, ptr %8) #10
  %12 = load i64, ptr %7, align 8, !tbaa !38
  %13 = trunc i64 %12 to i32
  store i32 %13, ptr %8, align 4, !tbaa !3
  %14 = load i64, ptr %7, align 8, !tbaa !38
  %15 = load i64, ptr %4, align 8, !tbaa !38
  %16 = icmp ult i64 %14, %15
  br i1 %16, label %25, label %17

17:                                               ; preds = %2
  %18 = load i32, ptr %8, align 4, !tbaa !3
  %19 = icmp slt i32 %18, 0
  br i1 %19, label %25, label %20

20:                                               ; preds = %17
  %21 = load i64, ptr %7, align 8, !tbaa !38
  %22 = load i32, ptr %8, align 4, !tbaa !3
  %23 = sext i32 %22 to i64
  %24 = icmp ne i64 %21, %23
  br i1 %24, label %25, label %30

25:                                               ; preds = %20, %17, %2
  %26 = load ptr, ptr @bio_err, align 8, !tbaa !14
  %27 = call ptr @opt_getprog()
  %28 = load i64, ptr %4, align 8, !tbaa !38
  %29 = call i32 (ptr, ptr, ...) @BIO_printf(ptr noundef %26, ptr noundef @.str.272, ptr noundef %27, i64 noundef %28)
  call void @exit(i32 noundef 1) #13
  unreachable

30:                                               ; preds = %20
  %31 = load i32, ptr %8, align 4, !tbaa !3
  %32 = sext i32 %31 to i64
  %33 = call ptr @app_malloc(i64 noundef %32, ptr noundef @.str.273)
  store ptr %33, ptr %5, align 8, !tbaa !21
  store ptr %33, ptr %6, align 8, !tbaa !21
  br label %34

34:                                               ; preds = %38, %30
  %35 = load i64, ptr %4, align 8, !tbaa !38
  %36 = add i64 %35, -1
  store i64 %36, ptr %4, align 8, !tbaa !38
  %37 = icmp ugt i64 %35, 0
  br i1 %37, label %38, label %61

38:                                               ; preds = %34
  %39 = load ptr, ptr @hexencode.hex, align 8, !tbaa !21
  %40 = load ptr, ptr %3, align 8, !tbaa !21
  %41 = load i8, ptr %40, align 1, !tbaa !29
  %42 = zext i8 %41 to i32
  %43 = ashr i32 %42, 4
  %44 = and i32 %43, 15
  %45 = sext i32 %44 to i64
  %46 = getelementptr inbounds i8, ptr %39, i64 %45
  %47 = load i8, ptr %46, align 1, !tbaa !29
  %48 = load ptr, ptr %6, align 8, !tbaa !21
  %49 = getelementptr inbounds nuw i8, ptr %48, i32 1
  store ptr %49, ptr %6, align 8, !tbaa !21
  store i8 %47, ptr %48, align 1, !tbaa !29
  %50 = load ptr, ptr @hexencode.hex, align 8, !tbaa !21
  %51 = load ptr, ptr %3, align 8, !tbaa !21
  %52 = getelementptr inbounds nuw i8, ptr %51, i32 1
  store ptr %52, ptr %3, align 8, !tbaa !21
  %53 = load i8, ptr %51, align 1, !tbaa !29
  %54 = zext i8 %53 to i32
  %55 = and i32 %54, 15
  %56 = sext i32 %55 to i64
  %57 = getelementptr inbounds i8, ptr %50, i64 %56
  %58 = load i8, ptr %57, align 1, !tbaa !29
  %59 = load ptr, ptr %6, align 8, !tbaa !21
  %60 = getelementptr inbounds nuw i8, ptr %59, i32 1
  store ptr %60, ptr %6, align 8, !tbaa !21
  store i8 %58, ptr %59, align 1, !tbaa !29
  br label %34, !llvm.loop !88

61:                                               ; preds = %34
  %62 = load ptr, ptr %6, align 8, !tbaa !21
  store i8 0, ptr %62, align 1, !tbaa !29
  %63 = load ptr, ptr %5, align 8, !tbaa !21
  call void @llvm.lifetime.end.p0(i64 4, ptr %8) #10
  call void @llvm.lifetime.end.p0(i64 8, ptr %7) #10
  call void @llvm.lifetime.end.p0(i64 8, ptr %6) #10
  call void @llvm.lifetime.end.p0(i64 8, ptr %5) #10
  ret ptr %63
}

; Function Attrs: nounwind uwtable
define void @print_verify_detail(ptr noundef %0, ptr noundef %1) #0 {
  %3 = alloca ptr, align 8
  %4 = alloca ptr, align 8
  %5 = alloca i32, align 4
  %6 = alloca ptr, align 8
  %7 = alloca i64, align 8
  %8 = alloca ptr, align 8
  %9 = alloca ptr, align 8
  %10 = alloca i8, align 1
  %11 = alloca i8, align 1
  %12 = alloca i8, align 1
  %13 = alloca ptr, align 8
  %14 = alloca i64, align 8
  %15 = alloca ptr, align 8
  store ptr %0, ptr %3, align 8, !tbaa !27
  store ptr %1, ptr %4, align 8, !tbaa !14
  call void @llvm.lifetime.start.p0(i64 4, ptr %5) #10
  call void @llvm.lifetime.start.p0(i64 8, ptr %6) #10
  store ptr null, ptr %6, align 8, !tbaa !23
  call void @llvm.lifetime.start.p0(i64 8, ptr %7) #10
  %16 = load ptr, ptr %3, align 8, !tbaa !27
  %17 = call i64 @SSL_get_verify_result(ptr noundef %16)
  store i64 %17, ptr %7, align 8, !tbaa !38
  %18 = load i64, ptr %7, align 8, !tbaa !38
  %19 = icmp eq i64 %18, 0
  br i1 %19, label %20, label %32

20:                                               ; preds = %2
  call void @llvm.lifetime.start.p0(i64 8, ptr %8) #10
  %21 = load ptr, ptr %3, align 8, !tbaa !27
  %22 = call ptr @SSL_get0_peername(ptr noundef %21)
  store ptr %22, ptr %8, align 8, !tbaa !21
  %23 = load ptr, ptr %4, align 8, !tbaa !14
  %24 = call i32 (ptr, ptr, ...) @BIO_printf(ptr noundef %23, ptr noundef @.str.92)
  %25 = load ptr, ptr %8, align 8, !tbaa !21
  %26 = icmp ne ptr %25, null
  br i1 %26, label %27, label %31

27:                                               ; preds = %20
  %28 = load ptr, ptr %4, align 8, !tbaa !14
  %29 = load ptr, ptr %8, align 8, !tbaa !21
  %30 = call i32 (ptr, ptr, ...) @BIO_printf(ptr noundef %28, ptr noundef @.str.93, ptr noundef %29)
  br label %31

31:                                               ; preds = %27, %20
  call void @llvm.lifetime.end.p0(i64 8, ptr %8) #10
  br label %38

32:                                               ; preds = %2
  call void @llvm.lifetime.start.p0(i64 8, ptr %9) #10
  %33 = load i64, ptr %7, align 8, !tbaa !38
  %34 = call ptr @X509_verify_cert_error_string(i64 noundef %33)
  store ptr %34, ptr %9, align 8, !tbaa !21
  %35 = load ptr, ptr %4, align 8, !tbaa !14
  %36 = load ptr, ptr %9, align 8, !tbaa !21
  %37 = call i32 (ptr, ptr, ...) @BIO_printf(ptr noundef %35, ptr noundef @.str.94, ptr noundef %36)
  call void @llvm.lifetime.end.p0(i64 8, ptr %9) #10
  br label %38

38:                                               ; preds = %32, %31
  %39 = load ptr, ptr %3, align 8, !tbaa !27
  %40 = call i32 @SSL_get0_dane_authority(ptr noundef %39, ptr noundef null, ptr noundef %6)
  store i32 %40, ptr %5, align 4, !tbaa !3
  %41 = icmp sge i32 %40, 0
  br i1 %41, label %42, label %91

42:                                               ; preds = %38
  call void @llvm.lifetime.start.p0(i64 1, ptr %10) #10
  call void @llvm.lifetime.start.p0(i64 1, ptr %11) #10
  call void @llvm.lifetime.start.p0(i64 1, ptr %12) #10
  call void @llvm.lifetime.start.p0(i64 8, ptr %13) #10
  store ptr null, ptr %13, align 8, !tbaa !21
  call void @llvm.lifetime.start.p0(i64 8, ptr %14) #10
  store i64 0, ptr %14, align 8, !tbaa !38
  call void @llvm.lifetime.start.p0(i64 8, ptr %15) #10
  %43 = load ptr, ptr %3, align 8, !tbaa !27
  %44 = call i32 @SSL_get0_dane_tlsa(ptr noundef %43, ptr noundef %10, ptr noundef %11, ptr noundef %12, ptr noundef %13, ptr noundef %14)
  store i32 %44, ptr %5, align 4, !tbaa !3
  %45 = load i64, ptr %14, align 8, !tbaa !38
  %46 = icmp ugt i64 %45, 12
  br i1 %46, label %47, label %53

47:                                               ; preds = %42
  %48 = load ptr, ptr %13, align 8, !tbaa !21
  %49 = load i64, ptr %14, align 8, !tbaa !38
  %50 = getelementptr inbounds nuw i8, ptr %48, i64 %49
  %51 = getelementptr inbounds i8, ptr %50, i64 -12
  %52 = call ptr @hexencode(ptr noundef %51, i64 noundef 12)
  store ptr %52, ptr %15, align 8, !tbaa !21
  br label %57

53:                                               ; preds = %42
  %54 = load ptr, ptr %13, align 8, !tbaa !21
  %55 = load i64, ptr %14, align 8, !tbaa !38
  %56 = call ptr @hexencode(ptr noundef %54, i64 noundef %55)
  store ptr %56, ptr %15, align 8, !tbaa !21
  br label %57

57:                                               ; preds = %53, %47
  %58 = load ptr, ptr %4, align 8, !tbaa !14
  %59 = load i8, ptr %10, align 1, !tbaa !29
  %60 = zext i8 %59 to i32
  %61 = load i8, ptr %11, align 1, !tbaa !29
  %62 = zext i8 %61 to i32
  %63 = load i8, ptr %12, align 1, !tbaa !29
  %64 = zext i8 %63 to i32
  %65 = load i64, ptr %14, align 8, !tbaa !38
  %66 = icmp ugt i64 %65, 12
  %67 = select i1 %66, ptr @.str.96, ptr @.str.53
  %68 = load ptr, ptr %15, align 8, !tbaa !21
  %69 = call i32 (ptr, ptr, ...) @BIO_printf(ptr noundef %58, ptr noundef @.str.95, i32 noundef %60, i32 noundef %62, i32 noundef %64, ptr noundef %67, ptr noundef %68)
  %70 = load ptr, ptr %3, align 8, !tbaa !27
  %71 = call ptr @SSL_get0_peer_rpk(ptr noundef %70)
  %72 = icmp eq ptr %71, null
  br i1 %72, label %73, label %86

73:                                               ; preds = %57
  %74 = load ptr, ptr %4, align 8, !tbaa !14
  %75 = load ptr, ptr %6, align 8, !tbaa !23
  %76 = icmp ne ptr %75, null
  br i1 %76, label %77, label %78

77:                                               ; preds = %73
  br label %82

78:                                               ; preds = %73
  %79 = load i32, ptr %5, align 4, !tbaa !3
  %80 = icmp ne i32 %79, 0
  %81 = select i1 %80, ptr @.str.99, ptr @.str.100
  br label %82

82:                                               ; preds = %78, %77
  %83 = phi ptr [ @.str.98, %77 ], [ %81, %78 ]
  %84 = load i32, ptr %5, align 4, !tbaa !3
  %85 = call i32 (ptr, ptr, ...) @BIO_printf(ptr noundef %74, ptr noundef @.str.97, ptr noundef %83, i32 noundef %84)
  br label %89

86:                                               ; preds = %57
  %87 = load ptr, ptr %4, align 8, !tbaa !14
  %88 = call i32 (ptr, ptr, ...) @BIO_printf(ptr noundef %87, ptr noundef @.str.101)
  br label %89

89:                                               ; preds = %86, %82
  %90 = load ptr, ptr %15, align 8, !tbaa !21
  call void @CRYPTO_free(ptr noundef %90, ptr noundef @.str.26, i32 noundef 1303)
  call void @llvm.lifetime.end.p0(i64 8, ptr %15) #10
  call void @llvm.lifetime.end.p0(i64 8, ptr %14) #10
  call void @llvm.lifetime.end.p0(i64 8, ptr %13) #10
  call void @llvm.lifetime.end.p0(i64 1, ptr %12) #10
  call void @llvm.lifetime.end.p0(i64 1, ptr %11) #10
  call void @llvm.lifetime.end.p0(i64 1, ptr %10) #10
  br label %91

91:                                               ; preds = %89, %38
  call void @llvm.lifetime.end.p0(i64 8, ptr %7) #10
  call void @llvm.lifetime.end.p0(i64 8, ptr %6) #10
  call void @llvm.lifetime.end.p0(i64 4, ptr %5) #10
  ret void
}