; Function Attrs: nounwind uwtable
define void @print_verify_detail(ptr noundef %0, ptr noundef %1) local_unnamed_addr #0 {
  %3 = alloca ptr, align 8
  %4 = alloca i8, align 1
  %5 = alloca i8, align 1
  %6 = alloca i8, align 1
  %7 = alloca ptr, align 8
  %8 = alloca i64, align 8
  call void @llvm.lifetime.start.p0(i64 8, ptr nonnull %3) #6
  store ptr null, ptr %3, align 8, !tbaa !27
  %9 = tail call i64 @SSL_get_verify_result(ptr noundef %0) #6
  %10 = icmp eq i64 %9, 0
  br i1 %10, label %11, label %16

11:                                               ; preds = %2
  %12 = tail call ptr @SSL_get0_peername(ptr noundef %0) #6
  %13 = tail call i32 (ptr, ptr, ...) @BIO_printf(ptr noundef %1, ptr noundef nonnull @.str.92) #6
  %.not = icmp eq ptr %12, null
  br i1 %.not, label %19, label %14

14:                                               ; preds = %11
  %15 = tail call i32 (ptr, ptr, ...) @BIO_printf(ptr noundef %1, ptr noundef nonnull @.str.93, ptr noundef nonnull %12) #6
  br label %19

16:                                               ; preds = %2
  %17 = tail call ptr @X509_verify_cert_error_string(i64 noundef %9) #6
  %18 = tail call i32 (ptr, ptr, ...) @BIO_printf(ptr noundef %1, ptr noundef nonnull @.str.94, ptr noundef %17) #6
  br label %19

19:                                               ; preds = %11, %14, %16
  %20 = call i32 @SSL_get0_dane_authority(ptr noundef %0, ptr noundef null, ptr noundef nonnull %3) #6
  %21 = icmp sgt i32 %20, -1
  br i1 %21, label %22, label %83

22:                                               ; preds = %19
  call void @llvm.lifetime.start.p0(i64 1, ptr nonnull %4) #6
  call void @llvm.lifetime.start.p0(i64 1, ptr nonnull %5) #6
  call void @llvm.lifetime.start.p0(i64 1, ptr nonnull %6) #6
  call void @llvm.lifetime.start.p0(i64 8, ptr nonnull %7) #6
  store ptr null, ptr %7, align 8, !tbaa !13
  call void @llvm.lifetime.start.p0(i64 8, ptr nonnull %8) #6
  store i64 0, ptr %8, align 8, !tbaa !29
  %23 = call i32 @SSL_get0_dane_tlsa(ptr noundef %0, ptr noundef nonnull %4, ptr noundef nonnull %5, ptr noundef nonnull %6, ptr noundef nonnull %7, ptr noundef nonnull %8) #6
  %24 = load i64, ptr %8, align 8, !tbaa !29
  %25 = icmp ugt i64 %24, 12
  %26 = load ptr, ptr %7, align 8, !tbaa !13
  br i1 %25, label %27, label %45

27:                                               ; preds = %22
  %28 = getelementptr inbounds nuw i8, ptr %26, i64 %24
  %29 = getelementptr inbounds i8, ptr %28, i64 -12
  %30 = call ptr @app_malloc(i64 noundef 25, ptr noundef nonnull @.str.273) #6
  br label %.lr.ph.i

.lr.ph.i:                                         ; preds = %.lr.ph.i, %27
  %.025.i = phi ptr [ %38, %.lr.ph.i ], [ %29, %27 ]
  %.01624.i = phi i64 [ %31, %.lr.ph.i ], [ 12, %27 ]
  %.01723.i = phi ptr [ %44, %.lr.ph.i ], [ %30, %27 ]
  %31 = add nsw i64 %.01624.i, -1
  %32 = load i8, ptr %.025.i, align 1, !tbaa !15
  %33 = lshr i8 %32, 4
  %34 = zext nneg i8 %33 to i64
  %35 = getelementptr inbounds nuw i8, ptr @.str.271, i64 %34
  %36 = load i8, ptr %35, align 1, !tbaa !15
  %37 = getelementptr inbounds nuw i8, ptr %.01723.i, i64 1
  store i8 %36, ptr %.01723.i, align 1, !tbaa !15
  %38 = getelementptr inbounds nuw i8, ptr %.025.i, i64 1
  %39 = load i8, ptr %.025.i, align 1, !tbaa !15
  %40 = and i8 %39, 15
  %41 = zext nneg i8 %40 to i64
  %42 = getelementptr inbounds nuw i8, ptr @.str.271, i64 %41
  %43 = load i8, ptr %42, align 1, !tbaa !15
  %44 = getelementptr inbounds nuw i8, ptr %.01723.i, i64 2
  store i8 %43, ptr %37, align 1, !tbaa !15
  %.not.i = icmp eq i64 %31, 0
  br i1 %.not.i, label %hexencode.exit, label %.lr.ph.i, !llvm.loop !67

45:                                               ; preds = %22
  %46 = shl nuw nsw i64 %24, 1
  %47 = or disjoint i64 %46, 1
  %48 = call ptr @app_malloc(i64 noundef %47, ptr noundef nonnull @.str.273) #6
  %.not22.i = icmp eq i64 %24, 0
  br i1 %.not22.i, label %hexencode.exit, label %.lr.ph.i24

.lr.ph.i24:                                       ; preds = %45, %.lr.ph.i24
  %.025.i25 = phi ptr [ %56, %.lr.ph.i24 ], [ %26, %45 ]
  %.01624.i26 = phi i64 [ %49, %.lr.ph.i24 ], [ %24, %45 ]
  %.01723.i27 = phi ptr [ %62, %.lr.ph.i24 ], [ %48, %45 ]
  %49 = add nsw i64 %.01624.i26, -1
  %50 = load i8, ptr %.025.i25, align 1, !tbaa !15
  %51 = lshr i8 %50, 4
  %52 = zext nneg i8 %51 to i64
  %53 = getelementptr inbounds nuw i8, ptr @.str.271, i64 %52
  %54 = load i8, ptr %53, align 1, !tbaa !15
  %55 = getelementptr inbounds nuw i8, ptr %.01723.i27, i64 1
  store i8 %54, ptr %.01723.i27, align 1, !tbaa !15
  %56 = getelementptr inbounds nuw i8, ptr %.025.i25, i64 1
  %57 = load i8, ptr %.025.i25, align 1, !tbaa !15
  %58 = and i8 %57, 15
  %59 = zext nneg i8 %58 to i64
  %60 = getelementptr inbounds nuw i8, ptr @.str.271, i64 %59
  %61 = load i8, ptr %60, align 1, !tbaa !15
  %62 = getelementptr inbounds nuw i8, ptr %.01723.i27, i64 2
  store i8 %61, ptr %55, align 1, !tbaa !15
  %.not.i28 = icmp eq i64 %49, 0
  br i1 %.not.i28, label %hexencode.exit, label %.lr.ph.i24, !llvm.loop !67

hexencode.exit:                                   ; preds = %.lr.ph.i24, %.lr.ph.i, %45
  %.017.lcssa.i.sink = phi ptr [ %48, %45 ], [ %44, %.lr.ph.i ], [ %62, %.lr.ph.i24 ]
  %.0 = phi ptr [ %48, %45 ], [ %30, %.lr.ph.i ], [ %48, %.lr.ph.i24 ]
  store i8 0, ptr %.017.lcssa.i.sink, align 1, !tbaa !15
  %63 = load i8, ptr %4, align 1, !tbaa !15
  %64 = zext i8 %63 to i32
  %65 = load i8, ptr %5, align 1, !tbaa !15
  %66 = zext i8 %65 to i32
  %67 = load i8, ptr %6, align 1, !tbaa !15
  %68 = zext i8 %67 to i32
  %69 = load i64, ptr %8, align 8, !tbaa !29
  %70 = icmp ugt i64 %69, 12
  %71 = select i1 %70, ptr @.str.96, ptr @.str.53
  %72 = call i32 (ptr, ptr, ...) @BIO_printf(ptr noundef %1, ptr noundef nonnull @.str.95, i32 noundef %64, i32 noundef %66, i32 noundef %68, ptr noundef nonnull %71, ptr noundef %.0) #6
  %73 = call ptr @SSL_get0_peer_rpk(ptr noundef %0) #6
  %74 = icmp eq ptr %73, null
  br i1 %74, label %75, label %80

75:                                               ; preds = %hexencode.exit
  %76 = load ptr, ptr %3, align 8, !tbaa !27
  %.not22 = icmp eq ptr %76, null
  %.not23 = icmp eq i32 %23, 0
  %77 = select i1 %.not23, ptr @.str.100, ptr @.str.99
  %78 = select i1 %.not22, ptr %77, ptr @.str.98
  %79 = call i32 (ptr, ptr, ...) @BIO_printf(ptr noundef %1, ptr noundef nonnull @.str.97, ptr noundef nonnull %78, i32 noundef %23) #6
  br label %82

80:                                               ; preds = %hexencode.exit
  %81 = call i32 (ptr, ptr, ...) @BIO_printf(ptr noundef %1, ptr noundef nonnull @.str.101) #6
  br label %82

82:                                               ; preds = %80, %75
  call void @CRYPTO_free(ptr noundef %.0, ptr noundef nonnull @.str.26, i32 noundef 1303) #6
  call void @llvm.lifetime.end.p0(i64 8, ptr nonnull %8) #6
  call void @llvm.lifetime.end.p0(i64 8, ptr nonnull %7) #6
  call void @llvm.lifetime.end.p0(i64 1, ptr nonnull %6) #6
  call void @llvm.lifetime.end.p0(i64 1, ptr nonnull %5) #6
  call void @llvm.lifetime.end.p0(i64 1, ptr nonnull %4) #6
  br label %83

83:                                               ; preds = %82, %19
  call void @llvm.lifetime.end.p0(i64 8, ptr nonnull %3) #6
  ret void
}